target datalayout = "e-m:e-p270:32:32-p271:32:32-p272:64:64-i64:64-i128:128-f80:128-n8:16:32:64-S128"
target triple = "x86_64-pc-linux-gnu"

%struct.H5HF_hdr_t = type { %struct.H5C_cache_entry_t, i32, i32, i8, i8, i8, i8, %struct.H5HF_dtable_t, i64, i64, i32, i64, i64, %struct.H5O_pline_t, i64, i32, i64, i64, i64, i64, i64, i64, i64, i64, i64, i64, i64, i32, ptr, i64, i8, i8, i8, ptr, i32, ptr, %struct.H5HF_block_iter_t, ptr, i64, i8, i8, i64, i8, i8, i8, i8 }
%struct.H5C_cache_entry_t = type { ptr, i64, i64, ptr, i8, ptr, i8, i8, i8, i8, i32, i8, i8, i8, i8, i8, i32, ptr, i32, i32, i32, i32, i32, i8, i8, ptr, ptr, ptr, ptr, ptr, ptr, i8, i32, i8, i64, ptr, i64, i64, i32, i8, i32, i32, i8, ptr, ptr, ptr }
%struct.H5HF_dtable_t = type { %struct.H5HF_dtable_cparam_t, i64, i32, i32, i32, i32, i32, i32, i32, i64, ptr, ptr, ptr, ptr }
%struct.H5HF_dtable_cparam_t = type { i32, i64, i64, i32, i32 }
%struct.H5O_pline_t = type { %struct.H5O_shared_t, i32, i64, i64, ptr }
%struct.H5O_shared_t = type { i32, ptr, i32, %union.anon }
%union.anon = type { %struct.H5O_mesg_loc_t }
%struct.H5O_mesg_loc_t = type { i32, i64 }
%struct.H5HF_block_iter_t = type { i8, ptr }

@.str = private unnamed_addr constant [102 x i8] c"generated/home/dtcxzyw/WorkSpace/Projects/compilers/llvm-opt-benchmark/bench/hdf5/hdf5/src/H5HFtiny.c\00", align 1
@H5E_HEAP_g = external global i64, align 8
@H5E_CANTOPERATE_g = external global i64, align 8
@.str.2 = private unnamed_addr constant [33 x i8] c"unable to operate on heap object\00", align 1
@__func__.H5HF__tiny_op = private unnamed_addr constant [14 x i8] c"H5HF__tiny_op\00", align 1
@__func__.H5HF__tiny_op_real = private unnamed_addr constant [19 x i8] c"H5HF__tiny_op_real\00", align 1
@.str.3 = private unnamed_addr constant [30 x i8] c"application's callback failed\00", align 1

; Function Attrs: nounwind uwtable
define i32 @H5HF__tiny_get_obj_len(ptr noundef %0, ptr noundef %1, ptr noundef %2) #0 {
  %4 = alloca ptr, align 8
  %5 = alloca ptr, align 8
  %6 = alloca ptr, align 8
  %7 = alloca i64, align 8
  store ptr %0, ptr %4, align 8
  store ptr %1, ptr %5, align 8
  store ptr %2, ptr %6, align 8
  %8 = load ptr, ptr %4, align 8
  %9 = getelementptr inbounds %struct.H5HF_hdr_t, ptr %8, i32 0, i32 42
  %10 = load i8, ptr %9, align 8
  %11 = trunc i8 %10 to i1
  br i1 %11, label %18, label %12

12:                                               ; preds = %3
  %13 = load ptr, ptr %5, align 8
  %14 = load i8, ptr %13, align 1
  %15 = zext i8 %14 to i32
  %16 = and i32 %15, 15
  %17 = sext i32 %16 to i64
  store i64 %17, ptr %7, align 8
  br label %30

18:                                               ; preds = %3
  %19 = load ptr, ptr %5, align 8
  %20 = getelementptr inbounds i8, ptr %19, i64 1
  %21 = load i8, ptr %20, align 1
  %22 = zext i8 %21 to i64
  %23 = load ptr, ptr %5, align 8
  %24 = load i8, ptr %23, align 1
  %25 = zext i8 %24 to i32
  %26 = and i32 %25, 3840
  %27 = sext i32 %26 to i64
  %28 = shl i64 %27, 8
  %29 = or i64 %22, %28
  store i64 %29, ptr %7, align 8
  br label %30

30:                                               ; preds = %18, %12
  %31 = load i64, ptr %7, align 8
  %32 = add i64 %31, 1
  %33 = load ptr, ptr %6, align 8
  store i64 %32, ptr %33, align 8
  ret i32 0
}

; Function Attrs: nounwind uwtable
define internal i32 @H5HF__tiny_op_real(ptr noundef %0, ptr noundef %1, ptr noundef %2, ptr noundef %3) #0 {
  %5 = alloca ptr, align 8
  %6 = alloca ptr, align 8
  %7 = alloca ptr, align 8
  %8 = alloca ptr, align 8
  %9 = alloca i64, align 8
  %10 = alloca i32, align 4
  %11 = alloca i8, align 1
  store ptr %0, ptr %5, align 8
  store ptr %1, ptr %6, align 8
  store ptr %2, ptr %7, align 8
  store ptr %3, ptr %8, align 8
  store i32 0, ptr %10, align 4
  store i8 0, ptr %11, align 1
  %12 = load ptr, ptr %5, align 8
  %13 = load ptr, ptr %6, align 8
  %14 = call i32 @H5HF__tiny_get_obj_len(ptr noundef %12, ptr noundef %13, ptr noundef %9)
  store i32 %14, ptr %10, align 4
  %15 = load ptr, ptr %5, align 8
  %16 = getelementptr inbounds %struct.H5HF_hdr_t, ptr %15, i32 0, i32 42
  %17 = load i8, ptr %16, align 8
  %18 = trunc i8 %17 to i1
  br i1 %18, label %22, label %19

19:                                               ; preds = %4
  %20 = load ptr, ptr %6, align 8
  %21 = getelementptr inbounds i8, ptr %20, i32 1
  store ptr %21, ptr %6, align 8
  br label %27

22:                                               ; preds = %4
  %23 = load ptr, ptr %6, align 8
  %24 = getelementptr inbounds i8, ptr %23, i32 1
  store ptr %24, ptr %6, align 8
  %25 = load ptr, ptr %6, align 8
  %26 = getelementptr inbounds i8, ptr %25, i32 1
  store ptr %26, ptr %6, align 8
  br label %27

27:                                               ; preds = %22, %19
  %28 = load ptr, ptr %7, align 8
  %29 = load ptr, ptr %6, align 8
  %30 = load i64, ptr %9, align 8
  %31 = load ptr, ptr %8, align 8
  %32 = call i32 %28(ptr noundef %29, i64 noundef %30, ptr noundef %31)
  %33 = icmp slt i32 %32, 0
  br i1 %33, label %34, label %49

34:                                               ; preds = %27
  br label %35

35:                                               ; preds = %34
  br label %36

36:                                               ; preds = %35
  br label %37

37:                                               ; preds = %36
  %38 = load i64, ptr @H5E_HEAP_g, align 8
  %39 = load i64, ptr @H5E_CANTOPERATE_g, align 8
  %40 = call i32 (ptr, ptr, i32, i64, i64, ptr, ...) @H5E_printf_stack(ptr noundef @.str, ptr noundef @__func__.H5HF__tiny_op_real, i32 noundef 248, i64 noundef %38, i64 noundef %39, ptr noundef @.str.3)
  br label %41

41:                                               ; preds = %37
  store i8 1, ptr %11, align 1
  %42 = load i8, ptr %11, align 1
  %43 = trunc i8 %42 to i1
  %44 = zext i1 %43 to i8
  store i8 %44, ptr %11, align 1
  br label %45

45:                                               ; preds = %41
  br label %46

46:                                               ; preds = %45
  store i32 -1, ptr %10, align 4
  br label %50

47:                                               ; No predecessors!
  br label %48

48:                                               ; preds = %47
  br label %49

49:                                               ; preds = %48, %27
  br label %50

50:                                               ; preds = %49, %46
  %51 = load i32, ptr %10, align 4
  ret i32 %51
}

; Function Attrs: nounwind uwtable
define i32 @H5HF__tiny_op(ptr noundef %0, ptr noundef %1, ptr noundef %2, ptr noundef %3) #0 {
  %5 = alloca ptr, align 8
  %6 = alloca ptr, align 8
  %7 = alloca ptr, align 8
  %8 = alloca ptr, align 8
  %9 = alloca i32, align 4
  %10 = alloca i8, align 1
  store ptr %0, ptr %5, align 8
  store ptr %1, ptr %6, align 8
  store ptr %2, ptr %7, align 8
  store ptr %3, ptr %8, align 8
  store i32 0, ptr %9, align 4
  store i8 0, ptr %10, align 1
  %11 = load ptr, ptr %5, align 8
  %12 = load ptr, ptr %6, align 8
  %13 = load ptr, ptr %7, align 8
  %14 = load ptr, ptr %8, align 8
  %15 = call i32 @H5HF__tiny_op_real(ptr noundef %11, ptr noundef %12, ptr noundef %13, ptr noundef %14)
  %16 = icmp slt i32 %15, 0
  br i1 %16, label %17, label %32

17:                                               ; preds = %4
  br label %18

18:                                               ; preds = %17
  br label %19

19:                                               ; preds = %18
  br label %20

20:                                               ; preds = %19
  %21 = load i64, ptr @H5E_HEAP_g, align 8
  %22 = load i64, ptr @H5E_CANTOPERATE_g, align 8
  %23 = call i32 (ptr, ptr, i32, i64, i64, ptr, ...) @H5E_printf_stack(ptr noundef @.str, ptr noundef @__func__.H5HF__tiny_op, i32 noundef 310, i64 noundef %21, i64 noundef %22, ptr noundef @.str.2)
  br label %24

24:                                               ; preds = %20
  store i8 1, ptr %10, align 1
  %25 = load i8, ptr %10, align 1
  %26 = trunc i8 %25 to i1
  %27 = zext i1 %26 to i8
  store i8 %27, ptr %10, align 1
  br label %28

28:                                               ; preds = %24
  br label %29

29:                                               ; preds = %28
  store i32 -1, ptr %9, align 4
  br label %33

30:                                               ; No predecessors!
  br label %31

31:                                               ; preds = %30
  br label %32

32:                                               ; preds = %31, %4
  br label %33

33:                                               ; preds = %32, %29
  %34 = load i32, ptr %9, align 4
  ret i32 %34
}