; Function Attrs: nounwind uwtable
define range(i32 -1, 1) i32 @H5HF__tiny_op(ptr nocapture noundef readonly %0, ptr noundef %1, ptr nocapture noundef readonly %2, ptr noundef %3) local_unnamed_addr #1 {
  %5 = getelementptr i8, ptr %0, i64 696
  %.val = load i8, ptr %5, align 8
  %6 = trunc i8 %.val to i1
  br i1 %6, label %10, label %7

7:                                                ; preds = %4
  %8 = load i8, ptr %1, align 1
  %9 = and i8 %8, 15
  br label %H5HF__tiny_get_obj_len.exit.i

10:                                               ; preds = %4
  %11 = getelementptr inbounds i8, ptr %1, i64 1
  %12 = load i8, ptr %11, align 1
  br label %H5HF__tiny_get_obj_len.exit.i

H5HF__tiny_get_obj_len.exit.i:                    ; preds = %10, %7
  %.010.v.i = phi i64 [ 2, %10 ], [ 1, %7 ]
  %.0.in.i.i = phi i8 [ %12, %10 ], [ %9, %7 ]
  %.0.i.i = zext i8 %.0.in.i.i to i64
  %13 = add nuw nsw i64 %.0.i.i, 1
  %.010.i = getelementptr inbounds i8, ptr %1, i64 %.010.v.i
  %14 = tail call i32 %2(ptr noundef nonnull %.010.i, i64 noundef %13, ptr noundef %3) #5
  %15 = icmp slt i32 %14, 0
  br i1 %15, label %16, label %H5HF__tiny_op_real.exit

16:                                               ; preds = %H5HF__tiny_get_obj_len.exit.i
  %17 = load i64, ptr @H5E_HEAP_g, align 8
  %18 = load i64, ptr @H5E_CANTOPERATE_g, align 8
  %19 = tail call i32 (ptr, ptr, i32, i64, i64, ptr, ...) @H5E_printf_stack(ptr noundef nonnull @.str, ptr noundef nonnull @__func__.H5HF__tiny_op_real, i32 noundef 248, i64 noundef %17, i64 noundef %18, ptr noundef nonnull @.str.3) #5
  %20 = load i64, ptr @H5E_HEAP_g, align 8
  %21 = load i64, ptr @H5E_CANTOPERATE_g, align 8
  %22 = tail call i32 (ptr, ptr, i32, i64, i64, ptr, ...) @H5E_printf_stack(ptr noundef nonnull @.str, ptr noundef nonnull @__func__.H5HF__tiny_op, i32 noundef 310, i64 noundef %20, i64 noundef %21, ptr noundef nonnull @.str.2) #5
  br label %H5HF__tiny_op_real.exit

H5HF__tiny_op_real.exit:                          ; preds = %H5HF__tiny_get_obj_len.exit.i, %16
  %.0 = phi i32 [ -1, %16 ], [ 0, %H5HF__tiny_get_obj_len.exit.i ]
  ret i32 %.0
}